ccopy_reg
_reconstructor
p1
(chmmlearn.hmm
GaussianHMM
p2
c__builtin__
object
p3
NtRp4
(dp5
S'min_covar'
p6
F0.001
sS'verbose'
p7
I00
sS'means_weight'
p8
I0
sS'startprob_prior'
p9
F1
sS'transmat_prior'
p10
F1
sS'means_prior'
p11
I0
sS'covars_weight'
p12
I1
sS'startprob_'
p13
cnumpy.core.multiarray
_reconstruct
p14
(cnumpy
ndarray
p15
(I0
tS'b'
tRp16
(I1
(I2
tcnumpy
dtype
p17
(S'f8'
I0
I1
tRp18
(I3
S'<'
NNNI-1
I-1
I0
tbI00
S'u\xcc%\x17\x8d\xf4t4\x00\x00\x00\x00\x00\x00\xf0?'
tbsS'transmat_'
p19
g14
(g15
(I0
tS'b'
tRp20
(I1
(I2
I2
tg18
I00
S"U<\xf9w=\xe4\xef?\xed\xaa\xc3\x06\x88\xc2k?'\x04\x80\x05\xafF\x81?\xef\xff\xe9C\xe5\xba\xef?"
tbsS'means_'
p21
g14
(g15
(I0
tS'b'
tRp22
(I1
(I2
I1
tg18
I00
S'\xe1\xe2\x85\xa5\x1e\x13\x10@Yf\x85\xa9l\xd6$@'
tbsS'n_iter'
p23
I1000
sS'_covars_'
p24
g14
(g15
(I0
tS'b'
tRp25
(I1
(I2
I1
tg18
I00
S"Y'\xda\x87\xfe\xdf\x04@\x8a\xf7\xda\xb7-\xc4\t@"
tbsS'algorithm'
p26
S'viterbi'
p27
sS'covariance_type'
p28
S'diag'
p29
sS'monitor_'
p30
g1
(chmmlearn.base
ConvergenceMonitor
p31
g3
NtRp32
(dp33
g23
I1000
sS'iter'
p34
I12
sg7
I00
sS'tol'
p35
F0.01
sS'history'
p36
ccollections
deque
p37
((lp38
cnumpy.core.multiarray
scalar
p39
(g18
S'&\x85h`\t \xb4\xc0'
tRp40
ag39
(g18
S'\xc5n\xb3.\x08 \xb4\xc0'
tRp41
aI2
tRp42
sbsS'random_state'
p43
NsS'params'
p44
S'stmc'
p45
sS'n_components'
p46
I2
sg35
F0.01
sS'n_features'
p47
I1
sS'init_params'
p48
g45
sS'covars_prior'
p49
F0.01
sb.